target datalayout = "e-m:e-p270:32:32-p271:32:32-p272:64:64-i64:64-i128:128-f80:128-n8:16:32:64-S128"
target triple = "x86_64-pc-linux-gnu"

%struct.pvk2key_ctx_st = type { ptr, [256 x i8], ptr, i32 }
%struct.keytype_desc_st = type { i32, ptr, ptr, ptr, ptr, ptr }

; Function Attrs: nounwind uwtable
define internal i32 @pvk2key_export_object(ptr noundef %0, ptr noundef %1, i64 noundef %2, ptr noundef %3, ptr noundef %4) #0 {
  %6 = alloca i32, align 4
  %7 = alloca ptr, align 8
  %8 = alloca ptr, align 8
  %9 = alloca i64, align 8
  %10 = alloca ptr, align 8
  %11 = alloca ptr, align 8
  %12 = alloca ptr, align 8
  %13 = alloca ptr, align 8
  %14 = alloca ptr, align 8
  %15 = alloca i32, align 4
  %16 = alloca i32, align 4
  store ptr %0, ptr %7, align 8, !tbaa !3
  store ptr %1, ptr %8, align 8, !tbaa !3
  store i64 %2, ptr %9, align 8, !tbaa !28
  store ptr %3, ptr %10, align 8, !tbaa !3
  store ptr %4, ptr %11, align 8, !tbaa !3
  call void @llvm.lifetime.start.p0(i64 8, ptr %12) #6
  %17 = load ptr, ptr %7, align 8, !tbaa !3
  store ptr %17, ptr %12, align 8, !tbaa !7
  call void @llvm.lifetime.start.p0(i64 8, ptr %13) #6
  %18 = load ptr, ptr %12, align 8, !tbaa !7
  %19 = getelementptr inbounds nuw %struct.pvk2key_ctx_st, ptr %18, i32 0, i32 2
  %20 = load ptr, ptr %19, align 8, !tbaa !20
  %21 = getelementptr inbounds nuw %struct.keytype_desc_st, ptr %20, i32 0, i32 2
  %22 = load ptr, ptr %21, align 8, !tbaa !32
  %23 = call ptr @ossl_prov_get_keymgmt_export(ptr noundef %22)
  store ptr %23, ptr %13, align 8, !tbaa !3
  call void @llvm.lifetime.start.p0(i64 8, ptr %14) #6
  %24 = load i64, ptr %9, align 8, !tbaa !28
  %25 = icmp eq i64 %24, 8
  br i1 %25, label %26, label %45

26:                                               ; preds = %5
  %27 = load ptr, ptr %13, align 8, !tbaa !3
  %28 = icmp ne ptr %27, null
  br i1 %28, label %29, label %45

29:                                               ; preds = %26
  call void @llvm.lifetime.start.p0(i64 4, ptr %15) #6
  %30 = load ptr, ptr %12, align 8, !tbaa !7
  %31 = getelementptr inbounds nuw %struct.pvk2key_ctx_st, ptr %30, i32 0, i32 3
  %32 = load i32, ptr %31, align 8, !tbaa !19
  store i32 %32, ptr %15, align 4, !tbaa !9
  %33 = load i32, ptr %15, align 4, !tbaa !9
  %34 = icmp eq i32 %33, 0
  br i1 %34, label %35, label %36

35:                                               ; preds = %29
  store i32 135, ptr %15, align 4, !tbaa !9
  br label %36

36:                                               ; preds = %35, %29
  %37 = load ptr, ptr %8, align 8, !tbaa !3
  %38 = load ptr, ptr %37, align 8, !tbaa !3
  store ptr %38, ptr %14, align 8, !tbaa !3
  %39 = load ptr, ptr %13, align 8, !tbaa !3
  %40 = load ptr, ptr %14, align 8, !tbaa !3
  %41 = load i32, ptr %15, align 4, !tbaa !9
  %42 = load ptr, ptr %10, align 8, !tbaa !3
  %43 = load ptr, ptr %11, align 8, !tbaa !3
  %44 = call i32 %39(ptr noundef %40, i32 noundef %41, ptr noundef %42, ptr noundef %43)
  store i32 %44, ptr %6, align 4
  store i32 1, ptr %16, align 4
  call void @llvm.lifetime.end.p0(i64 4, ptr %15) #6
  br label %46

45:                                               ; preds = %26, %5
  store i32 0, ptr %6, align 4
  store i32 1, ptr %16, align 4
  br label %46

46:                                               ; preds = %45, %36
  call void @llvm.lifetime.end.p0(i64 8, ptr %14) #6
  call void @llvm.lifetime.end.p0(i64 8, ptr %13) #6
  call void @llvm.lifetime.end.p0(i64 8, ptr %12) #6
  %47 = load i32, ptr %6, align 4
  ret i32 %47
}